; Function Attrs: mustprogress uwtable
define void @_ZN17grpc_event_engine12experimental22WorkStealingThreadPool26WorkStealingThreadPoolImpl11SetShutdownEb(ptr noundef nonnull align 8 dereferenceable(632) %this, i1 noundef zeroext %is_shutdown) local_unnamed_addr #3 align 2 personality ptr @__gxx_personality_v0 {
entry:
  %shutdown_ = getelementptr inbounds i8, ptr %this, i64 224
  %frombool.i = zext i1 %is_shutdown to i8
  %0 = atomicrmw xchg ptr %shutdown_, i8 %frombool.i seq_cst, align 1
  %1 = and i8 %0, 1
  %tobool3.i.i = icmp ne i8 %1, 0
  %2 = xor i1 %tobool3.i.i, %is_shutdown
  br i1 %2, label %do.end, label %if.then

if.then:                                          ; preds = %entry
  tail call void @gpr_assertion_failed(ptr noundef nonnull @.str, i32 noundef 239, ptr noundef nonnull @.str.6) #25
  unreachable

do.end:                                           ; preds = %entry
  %work_signal_ = getelementptr inbounds i8, ptr %this, i64 248
  tail call void @_ZN4absl12lts_202308025Mutex4LockEv(ptr noundef nonnull align 8 dereferenceable(8) %work_signal_)
  %cv_.i = getelementptr inbounds i8, ptr %this, i64 256
  invoke void @_ZN4absl12lts_202308027CondVar9SignalAllEv(ptr noundef nonnull align 8 dereferenceable(8) %cv_.i)
          to label %invoke.cont.i unwind label %lpad.i

invoke.cont.i:                                    ; preds = %do.end
  invoke void @_ZN4absl12lts_202308025Mutex6UnlockEv(ptr noundef nonnull align 8 dereferenceable(8) %work_signal_)
          to label %_ZN17grpc_event_engine12experimental22WorkStealingThreadPool10WorkSignal9SignalAllEv.exit unwind label %terminate.lpad.i.i

terminate.lpad.i.i:                               ; preds = %invoke.cont.i
  %3 = landingpad { ptr, i32 }
          catch ptr null
  %4 = extractvalue { ptr, i32 } %3, 0
  tail call void @__clang_call_terminate(ptr %4) #24
  unreachable

lpad.i:                                           ; preds = %do.end
  %5 = landingpad { ptr, i32 }
          cleanup
  invoke void @_ZN4absl12lts_202308025Mutex6UnlockEv(ptr noundef nonnull align 8 dereferenceable(8) %work_signal_)
          to label %_ZN4absl12lts_202308029MutexLockD2Ev.exit2.i unwind label %terminate.lpad.i1.i

terminate.lpad.i1.i:                              ; preds = %lpad.i
  %6 = landingpad { ptr, i32 }
          catch ptr null
  %7 = extractvalue { ptr, i32 } %6, 0
  tail call void @__clang_call_terminate(ptr %7) #24
  unreachable

_ZN4absl12lts_202308029MutexLockD2Ev.exit2.i:     ; preds = %lpad.i
  resume { ptr, i32 } %5

_ZN17grpc_event_engine12experimental22WorkStealingThreadPool10WorkSignal9SignalAllEv.exit: ; preds = %invoke.cont.i
  ret void
}